target datalayout = "e-m:e-p270:32:32-p271:32:32-p272:64:64-i64:64-i128:128-f80:128-n8:16:32:64-S128"
target triple = "x86_64-unknown-linux-gnu"

%struct.QTailQLink = type { ptr, ptr }
%struct.BlockDriverState = type { i32, i8, i8, i8, i8, i8, ptr, ptr, ptr, %struct.anon.0, i8, [4096 x i8], [4096 x i8], [4096 x i8], [16 x i8], ptr, [4096 x i8], %struct.BlockLimits, i32, i32, i32, i32, [32 x i8], %union.anon, %union.anon.1, %union.anon.2, i32, [16 x %struct.anon.3], ptr, %struct.anon.4, ptr, ptr, %struct.anon.5, ptr, ptr, i32, ptr, i64, i64, %struct.QemuMutex, %struct.anon.6, %struct.Stat64, i32, i32, i32, i32, i32, i32, %struct.QemuMutex, %struct.anon.7, %struct.CoQueue, i8, i32, i8, %struct.CoMutex, ptr, ptr }
%struct.anon.0 = type { ptr }
%struct.BlockLimits = type { i32, i64, i32, i64, i32, i32, i32, i64, i32, i64, i64, i32, i8, i32, i32, i32, i32, i32, i32, i32 }
%union.anon = type { %struct.QTailQLink }
%union.anon.1 = type { %struct.QTailQLink }
%union.anon.2 = type { %struct.QTailQLink }
%struct.anon.3 = type { ptr }
%struct.anon.4 = type { ptr }
%struct.anon.5 = type { ptr }
%struct.anon.6 = type { ptr }
%struct.Stat64 = type { i64 }
%struct.QemuMutex = type { %union.pthread_mutex_t, i8 }
%union.pthread_mutex_t = type { %struct.__pthread_mutex_s }
%struct.__pthread_mutex_s = type { i32, i32, i32, i32, i32, i16, i16, %struct.__pthread_internal_list }
%struct.__pthread_internal_list = type { ptr, ptr }
%struct.anon.7 = type { ptr }
%struct.CoQueue = type { %struct.anon.8 }
%struct.anon.8 = type { ptr, ptr }
%struct.CoMutex = type { i32, ptr, %struct.anon.9, %struct.anon.9, i32, i32, ptr }
%struct.anon.9 = type { ptr }

@.str.12 = private unnamed_addr constant [25 x i8] c"../qemu/block/blkdebug.c\00", align 1
@.str.58 = private unnamed_addr constant [143 x i8] c"QEMU_IS_ALIGNED(offset, align) || QEMU_IS_ALIGNED(offset + bytes, align) || DIV_ROUND_UP(offset, align) == DIV_ROUND_UP(offset + bytes, align)\00", align 1
@__PRETTY_FUNCTION__.blkdebug_co_pwrite_zeroes = private unnamed_addr constant [86 x i8] c"int blkdebug_co_pwrite_zeroes(BlockDriverState *, int64_t, int64_t, BdrvRequestFlags)\00", align 1
@.str.59 = private unnamed_addr constant [31 x i8] c"QEMU_IS_ALIGNED(offset, align)\00", align 1
@.str.60 = private unnamed_addr constant [30 x i8] c"QEMU_IS_ALIGNED(bytes, align)\00", align 1
@.str.61 = private unnamed_addr constant [34 x i8] c"bytes <= bs->bl.max_pwrite_zeroes\00", align 1

; Function Attrs: nounwind sspstrong uwtable
define internal i32 @blkdebug_co_pwrite_zeroes(ptr noundef %bs, i64 noundef %offset, i64 noundef %bytes, i32 noundef %flags) #0 {
entry:
  %retval = alloca i32, align 4
  %bs.addr = alloca ptr, align 8
  %offset.addr = alloca i64, align 8
  %bytes.addr = alloca i64, align 8
  %flags.addr = alloca i32, align 4
  %align = alloca i32, align 4
  %_a13 = alloca i32, align 4
  %_b14 = alloca i32, align 4
  %tmp = alloca i32, align 4
  %err = alloca i32, align 4
  store ptr %bs, ptr %bs.addr, align 8
  store i64 %offset, ptr %offset.addr, align 8
  store i64 %bytes, ptr %bytes.addr, align 8
  store i32 %flags, ptr %flags.addr, align 4
  %0 = load ptr, ptr %bs.addr, align 8
  %bl = getelementptr inbounds %struct.BlockDriverState, ptr %0, i32 0, i32 17
  %request_alignment = getelementptr inbounds %struct.BlockLimits, ptr %bl, i32 0, i32 0
  %1 = load i32, ptr %request_alignment, align 8
  store i32 %1, ptr %_a13, align 4
  %2 = load ptr, ptr %bs.addr, align 8
  %bl1 = getelementptr inbounds %struct.BlockDriverState, ptr %2, i32 0, i32 17
  %pwrite_zeroes_alignment = getelementptr inbounds %struct.BlockLimits, ptr %bl1, i32 0, i32 4
  %3 = load i32, ptr %pwrite_zeroes_alignment, align 8
  store i32 %3, ptr %_b14, align 4
  %4 = load i32, ptr %_a13, align 4
  %5 = load i32, ptr %_b14, align 4
  %cmp = icmp ugt i32 %4, %5
  br i1 %cmp, label %cond.true, label %cond.false

cond.true:                                        ; preds = %entry
  %6 = load i32, ptr %_a13, align 4
  br label %cond.end

cond.false:                                       ; preds = %entry
  %7 = load i32, ptr %_b14, align 4
  br label %cond.end

cond.end:                                         ; preds = %cond.false, %cond.true
  %cond = phi i32 [ %6, %cond.true ], [ %7, %cond.false ]
  store i32 %cond, ptr %tmp, align 4
  %8 = load i32, ptr %tmp, align 4
  store i32 %8, ptr %align, align 4
  %9 = load i64, ptr %bytes.addr, align 8
  %10 = load i32, ptr %align, align 4
  %conv = zext i32 %10 to i64
  %cmp2 = icmp slt i64 %9, %conv
  br i1 %cmp2, label %if.then, label %if.end24

if.then:                                          ; preds = %cond.end
  %11 = load i64, ptr %offset.addr, align 8
  %12 = load i32, ptr %align, align 4
  %conv4 = zext i32 %12 to i64
  %rem = srem i64 %11, %conv4
  %cmp5 = icmp eq i64 %rem, 0
  br i1 %cmp5, label %if.then23, label %lor.lhs.false

lor.lhs.false:                                    ; preds = %if.then
  %13 = load i64, ptr %offset.addr, align 8
  %14 = load i64, ptr %bytes.addr, align 8
  %add = add i64 %13, %14
  %15 = load i32, ptr %align, align 4
  %conv7 = zext i32 %15 to i64
  %rem8 = srem i64 %add, %conv7
  %cmp9 = icmp eq i64 %rem8, 0
  br i1 %cmp9, label %if.then23, label %lor.lhs.false11

lor.lhs.false11:                                  ; preds = %lor.lhs.false
  %16 = load i64, ptr %offset.addr, align 8
  %17 = load i32, ptr %align, align 4
  %conv12 = zext i32 %17 to i64
  %add13 = add i64 %16, %conv12
  %sub = sub i64 %add13, 1
  %18 = load i32, ptr %align, align 4
  %conv14 = zext i32 %18 to i64
  %div = sdiv i64 %sub, %conv14
  %19 = load i64, ptr %offset.addr, align 8
  %20 = load i64, ptr %bytes.addr, align 8
  %add15 = add i64 %19, %20
  %21 = load i32, ptr %align, align 4
  %conv16 = zext i32 %21 to i64
  %add17 = add i64 %add15, %conv16
  %sub18 = sub i64 %add17, 1
  %22 = load i32, ptr %align, align 4
  %conv19 = zext i32 %22 to i64
  %div20 = sdiv i64 %sub18, %conv19
  %cmp21 = icmp eq i64 %div, %div20
  br i1 %cmp21, label %if.then23, label %if.else

if.then23:                                        ; preds = %lor.lhs.false11, %lor.lhs.false, %if.then
  br label %if.end

if.else:                                          ; preds = %lor.lhs.false11
  call void @__assert_fail(ptr noundef @.str.58, ptr noundef @.str.12, i32 noundef 702, ptr noundef @__PRETTY_FUNCTION__.blkdebug_co_pwrite_zeroes) #15
  unreachable

if.end:                                           ; preds = %if.then23
  store i32 -95, ptr %retval, align 4
  br label %return

if.end24:                                         ; preds = %cond.end
  %23 = load i64, ptr %offset.addr, align 8
  %24 = load i32, ptr %align, align 4
  %conv25 = zext i32 %24 to i64
  %rem26 = srem i64 %23, %conv25
  %cmp27 = icmp eq i64 %rem26, 0
  br i1 %cmp27, label %if.then29, label %if.else30

if.then29:                                        ; preds = %if.end24
  br label %if.end31

if.else30:                                        ; preds = %if.end24
  call void @__assert_fail(ptr noundef @.str.59, ptr noundef @.str.12, i32 noundef 705, ptr noundef @__PRETTY_FUNCTION__.blkdebug_co_pwrite_zeroes) #15
  unreachable

if.end31:                                         ; preds = %if.then29
  %25 = load i64, ptr %bytes.addr, align 8
  %26 = load i32, ptr %align, align 4
  %conv32 = zext i32 %26 to i64
  %rem33 = srem i64 %25, %conv32
  %cmp34 = icmp eq i64 %rem33, 0
  br i1 %cmp34, label %if.then36, label %if.else37

if.then36:                                        ; preds = %if.end31
  br label %if.end38

if.else37:                                        ; preds = %if.end31
  call void @__assert_fail(ptr noundef @.str.60, ptr noundef @.str.12, i32 noundef 706, ptr noundef @__PRETTY_FUNCTION__.blkdebug_co_pwrite_zeroes) #15
  unreachable

if.end38:                                         ; preds = %if.then36
  %27 = load ptr, ptr %bs.addr, align 8
  %bl39 = getelementptr inbounds %struct.BlockDriverState, ptr %27, i32 0, i32 17
  %max_pwrite_zeroes = getelementptr inbounds %struct.BlockLimits, ptr %bl39, i32 0, i32 3
  %28 = load i64, ptr %max_pwrite_zeroes, align 8
  %tobool = icmp ne i64 %28, 0
  br i1 %tobool, label %if.then40, label %if.end48

if.then40:                                        ; preds = %if.end38
  %29 = load i64, ptr %bytes.addr, align 8
  %30 = load ptr, ptr %bs.addr, align 8
  %bl41 = getelementptr inbounds %struct.BlockDriverState, ptr %30, i32 0, i32 17
  %max_pwrite_zeroes42 = getelementptr inbounds %struct.BlockLimits, ptr %bl41, i32 0, i32 3
  %31 = load i64, ptr %max_pwrite_zeroes42, align 8
  %cmp43 = icmp sle i64 %29, %31
  br i1 %cmp43, label %if.then45, label %if.else46

if.then45:                                        ; preds = %if.then40
  br label %if.end47

if.else46:                                        ; preds = %if.then40
  call void @__assert_fail(ptr noundef @.str.61, ptr noundef @.str.12, i32 noundef 708, ptr noundef @__PRETTY_FUNCTION__.blkdebug_co_pwrite_zeroes) #15
  unreachable

if.end47:                                         ; preds = %if.then45
  br label %if.end48

if.end48:                                         ; preds = %if.end47, %if.end38
  %32 = load ptr, ptr %bs.addr, align 8
  %33 = load i64, ptr %offset.addr, align 8
  %34 = load i64, ptr %bytes.addr, align 8
  %call = call i32 @rule_check(ptr noundef %32, i64 noundef %33, i64 noundef %34, i32 noundef 2)
  store i32 %call, ptr %err, align 4
  %35 = load i32, ptr %err, align 4
  %tobool49 = icmp ne i32 %35, 0
  br i1 %tobool49, label %if.then50, label %if.end51

if.then50:                                        ; preds = %if.end48
  %36 = load i32, ptr %err, align 4
  store i32 %36, ptr %retval, align 4
  br label %return

if.end51:                                         ; preds = %if.end48
  %37 = load ptr, ptr %bs.addr, align 8
  %file = getelementptr inbounds %struct.BlockDriverState, ptr %37, i32 0, i32 31
  %38 = load ptr, ptr %file, align 8
  %39 = load i64, ptr %offset.addr, align 8
  %40 = load i64, ptr %bytes.addr, align 8
  %41 = load i32, ptr %flags.addr, align 4
  %call52 = call i32 @bdrv_co_pwrite_zeroes(ptr noundef %38, i64 noundef %39, i64 noundef %40, i32 noundef %41)
  store i32 %call52, ptr %retval, align 4
  br label %return

return:                                           ; preds = %if.end51, %if.then50, %if.end
  %42 = load i32, ptr %retval, align 4
  ret i32 %42
}