; Function Attrs: nounwind sspstrong uwtable
define internal i32 @blkdebug_co_pwrite_zeroes(ptr noundef readonly captures(none) %bs, i64 noundef %offset, i64 noundef %bytes, i32 noundef %flags) #0 {
entry:
  %bl = getelementptr inbounds nuw i8, ptr %bs, i64 16464
  %0 = load i32, ptr %bl, align 8
  %pwrite_zeroes_alignment = getelementptr inbounds nuw i8, ptr %bs, i64 16496
  %1 = load i32, ptr %pwrite_zeroes_alignment, align 8
  %cond = tail call i32 @llvm.umax.i32(i32 %0, i32 %1)
  %conv = zext i32 %cond to i64
  %cmp2 = icmp slt i64 %bytes, %conv
  %rem = srem i64 %offset, %conv
  %cmp5 = icmp eq i64 %rem, 0
  br i1 %cmp2, label %if.then, label %if.end24

if.then:                                          ; preds = %entry
  br i1 %cmp5, label %return, label %lor.lhs.false

lor.lhs.false:                                    ; preds = %if.then
  %add = add i64 %bytes, %offset
  %rem8 = srem i64 %add, %conv
  %cmp9 = icmp eq i64 %rem8, 0
  br i1 %cmp9, label %return, label %lor.lhs.false11

lor.lhs.false11:                                  ; preds = %lor.lhs.false
  %add13 = add nsw i64 %conv, -1
  %sub = add i64 %add13, %offset
  %div = sdiv i64 %sub, %conv
  %add17 = add i64 %add, -1
  %sub18 = add i64 %add17, %conv
  %div20 = sdiv i64 %sub18, %conv
  %cmp21 = icmp eq i64 %div, %div20
  br i1 %cmp21, label %return, label %if.else

if.else:                                          ; preds = %lor.lhs.false11
  tail call void @__assert_fail(ptr noundef nonnull @.str.58, ptr noundef nonnull @.str.12, i32 noundef 702, ptr noundef nonnull @__PRETTY_FUNCTION__.blkdebug_co_pwrite_zeroes) #17
  unreachable

if.end24:                                         ; preds = %entry
  br i1 %cmp5, label %if.end31, label %if.else30

if.else30:                                        ; preds = %if.end24
  tail call void @__assert_fail(ptr noundef nonnull @.str.59, ptr noundef nonnull @.str.12, i32 noundef 705, ptr noundef nonnull @__PRETTY_FUNCTION__.blkdebug_co_pwrite_zeroes) #17
  unreachable

if.end31:                                         ; preds = %if.end24
  %rem33 = urem i64 %bytes, %conv
  %cmp34 = icmp eq i64 %rem33, 0
  br i1 %cmp34, label %if.end38, label %if.else37

if.else37:                                        ; preds = %if.end31
  tail call void @__assert_fail(ptr noundef nonnull @.str.60, ptr noundef nonnull @.str.12, i32 noundef 706, ptr noundef nonnull @__PRETTY_FUNCTION__.blkdebug_co_pwrite_zeroes) #17
  unreachable

if.end38:                                         ; preds = %if.end31
  %max_pwrite_zeroes = getelementptr inbounds nuw i8, ptr %bs, i64 16488
  %2 = load i64, ptr %max_pwrite_zeroes, align 8
  %tobool.not = icmp ne i64 %2, 0
  %cmp43.not = icmp sgt i64 %bytes, %2
  %or.cond = and i1 %tobool.not, %cmp43.not
  br i1 %or.cond, label %if.else46, label %if.end48

if.else46:                                        ; preds = %if.end38
  tail call void @__assert_fail(ptr noundef nonnull @.str.61, ptr noundef nonnull @.str.12, i32 noundef 708, ptr noundef nonnull @__PRETTY_FUNCTION__.blkdebug_co_pwrite_zeroes) #17
  unreachable

if.end48:                                         ; preds = %if.end38
  %call = tail call i32 @rule_check(ptr noundef nonnull %bs, i64 noundef %offset, i64 noundef %bytes, i32 noundef 2)
  %tobool49.not = icmp eq i32 %call, 0
  br i1 %tobool49.not, label %if.end51, label %return

if.end51:                                         ; preds = %if.end48
  %file = getelementptr inbounds nuw i8, ptr %bs, i64 16840
  %3 = load ptr, ptr %file, align 8
  %call52 = tail call i32 @bdrv_co_pwrite_zeroes(ptr noundef %3, i64 noundef %offset, i64 noundef %bytes, i32 noundef %flags) #13
  br label %return

return:                                           ; preds = %if.end48, %lor.lhs.false11, %lor.lhs.false, %if.then, %if.end51
  %retval.0 = phi i32 [ %call52, %if.end51 ], [ -95, %if.then ], [ -95, %lor.lhs.false ], [ -95, %lor.lhs.false11 ], [ %call, %if.end48 ]
  ret i32 %retval.0
}